target datalayout = "e-m:e-p270:32:32-p271:32:32-p272:64:64-i64:64-i128:128-f80:128-n8:16:32:64-S128"
target triple = "x86_64-pc-linux-gnu"

%struct.ossl_record_layer_st = type { ptr, ptr, i32, i32, i32, i32, i32, ptr, i16, ptr, ptr, ptr, i64, i32, [33 x %struct.tls_buffer_st], i64, i64, %struct.tls_buffer_st, [32 x %struct.tls_rl_record_st], i64, i64, i64, i32, ptr, i64, [8 x i8], i32, i32, i64, i32, ptr, ptr, i64, ptr, ptr, i32, i32, i32, i64, i64, i64, [64 x i8], i32, i32, i32, ptr, ptr, i32, i32, i64, ptr, ptr, %struct.dtls_bitmap_st, %struct.dtls_bitmap_st, i32, ptr, ptr, ptr, ptr, ptr, i64, ptr }
%struct.tls_buffer_st = type { ptr, i64, i64, i64, i64, i32, i32 }
%struct.tls_rl_record_st = type { i32, i32, i64, i64, i64, ptr, ptr, ptr, i16, [8 x i8] }
%struct.dtls_bitmap_st = type { i64, [8 x i8] }

@.str = private unnamed_addr constant [43 x i8] c"../openssl/ssl/record/methods/tls13_meth.c\00", align 1
@__func__.tls13_validate_record_header = private unnamed_addr constant [29 x i8] c"tls13_validate_record_header\00", align 1

; Function Attrs: nounwind uwtable
define internal i32 @tls13_validate_record_header(ptr noundef %0, ptr noundef %1) #0 {
  %3 = alloca i32, align 4
  %4 = alloca ptr, align 8
  %5 = alloca ptr, align 8
  store ptr %0, ptr %4, align 8, !tbaa !3
  store ptr %1, ptr %5, align 8, !tbaa !47
  %6 = load ptr, ptr %5, align 8, !tbaa !47
  %7 = getelementptr inbounds nuw %struct.tls_rl_record_st, ptr %6, i32 0, i32 1
  %8 = load i32, ptr %7, align 4, !tbaa !51
  %9 = icmp ne i32 %8, 23
  br i1 %9, label %10, label %32

10:                                               ; preds = %2
  %11 = load ptr, ptr %5, align 8, !tbaa !47
  %12 = getelementptr inbounds nuw %struct.tls_rl_record_st, ptr %11, i32 0, i32 1
  %13 = load i32, ptr %12, align 4, !tbaa !51
  %14 = icmp ne i32 %13, 20
  br i1 %14, label %20, label %15

15:                                               ; preds = %10
  %16 = load ptr, ptr %4, align 8, !tbaa !3
  %17 = getelementptr inbounds nuw %struct.ossl_record_layer_st, ptr %16, i32 0, i32 35
  %18 = load i32, ptr %17, align 8, !tbaa !61
  %19 = icmp ne i32 %18, 0
  br i1 %19, label %32, label %20

20:                                               ; preds = %15, %10
  %21 = load ptr, ptr %5, align 8, !tbaa !47
  %22 = getelementptr inbounds nuw %struct.tls_rl_record_st, ptr %21, i32 0, i32 1
  %23 = load i32, ptr %22, align 4, !tbaa !51
  %24 = icmp ne i32 %23, 21
  br i1 %24, label %30, label %25

25:                                               ; preds = %20
  %26 = load ptr, ptr %4, align 8, !tbaa !3
  %27 = getelementptr inbounds nuw %struct.ossl_record_layer_st, ptr %26, i32 0, i32 47
  %28 = load i32, ptr %27, align 8, !tbaa !62
  %29 = icmp ne i32 %28, 0
  br i1 %29, label %32, label %30

30:                                               ; preds = %25, %20
  call void @ERR_new()
  call void @ERR_set_debug(ptr noundef @.str, i32 noundef 258, ptr noundef @__func__.tls13_validate_record_header)
  %31 = load ptr, ptr %4, align 8, !tbaa !3
  call void (ptr, i32, i32, ptr, ...) @ossl_rlayer_fatal(ptr noundef %31, i32 noundef 10, i32 noundef 443, ptr noundef null)
  store i32 0, ptr %3, align 4
  br label %47

32:                                               ; preds = %25, %15, %2
  %33 = load ptr, ptr %5, align 8, !tbaa !47
  %34 = getelementptr inbounds nuw %struct.tls_rl_record_st, ptr %33, i32 0, i32 0
  %35 = load i32, ptr %34, align 8, !tbaa !60
  %36 = icmp ne i32 %35, 771
  br i1 %36, label %37, label %39

37:                                               ; preds = %32
  call void @ERR_new()
  call void @ERR_set_debug(ptr noundef @.str, i32 noundef 263, ptr noundef @__func__.tls13_validate_record_header)
  %38 = load ptr, ptr %4, align 8, !tbaa !3
  call void (ptr, i32, i32, ptr, ...) @ossl_rlayer_fatal(ptr noundef %38, i32 noundef 50, i32 noundef 267, ptr noundef null)
  store i32 0, ptr %3, align 4
  br label %47

39:                                               ; preds = %32
  %40 = load ptr, ptr %5, align 8, !tbaa !47
  %41 = getelementptr inbounds nuw %struct.tls_rl_record_st, ptr %40, i32 0, i32 2
  %42 = load i64, ptr %41, align 8, !tbaa !55
  %43 = icmp ugt i64 %42, 16640
  br i1 %43, label %44, label %46

44:                                               ; preds = %39
  call void @ERR_new()
  call void @ERR_set_debug(ptr noundef @.str, i32 noundef 269, ptr noundef @__func__.tls13_validate_record_header)
  %45 = load ptr, ptr %4, align 8, !tbaa !3
  call void (ptr, i32, i32, ptr, ...) @ossl_rlayer_fatal(ptr noundef %45, i32 noundef 22, i32 noundef 150, ptr noundef null)
  store i32 0, ptr %3, align 4
  br label %47

46:                                               ; preds = %39
  store i32 1, ptr %3, align 4
  br label %47

47:                                               ; preds = %46, %44, %37, %30
  %48 = load i32, ptr %3, align 4
  ret i32 %48
}