; Function Attrs: nounwind uwtable
define internal range(i32 0, 2) i32 @tls13_validate_record_header(ptr noundef %0, ptr noundef readonly captures(none) %1) #0 {
  %3 = getelementptr inbounds nuw i8, ptr %1, i64 4
  %4 = load i32, ptr %3, align 4, !tbaa !34
  switch i32 %4, label %.thread [
    i32 23, label %11
    i32 20, label %5
    i32 21, label %8
  ]

5:                                                ; preds = %2
  %6 = getelementptr inbounds nuw i8, ptr %0, i64 4168
  %7 = load i32, ptr %6, align 8, !tbaa !44
  %.not12 = icmp eq i32 %7, 0
  br i1 %.not12, label %.thread, label %11

8:                                                ; preds = %2
  %9 = getelementptr inbounds nuw i8, ptr %0, i64 4304
  %10 = load i32, ptr %9, align 8, !tbaa !45
  %.not14 = icmp eq i32 %10, 0
  br i1 %.not14, label %.thread, label %11

.thread:                                          ; preds = %2, %5, %8
  tail call void @ERR_new() #6
  tail call void @ERR_set_debug(ptr noundef nonnull @.str, i32 noundef 258, ptr noundef nonnull @__func__.tls13_validate_record_header) #6
  tail call void (ptr, i32, i32, ptr, ...) @ossl_rlayer_fatal(ptr noundef %0, i32 noundef 10, i32 noundef 443, ptr noundef null) #6
  br label %19

11:                                               ; preds = %2, %8, %5
  %12 = load i32, ptr %1, align 8, !tbaa !43
  %.not15 = icmp eq i32 %12, 771
  br i1 %.not15, label %14, label %13

13:                                               ; preds = %11
  tail call void @ERR_new() #6
  tail call void @ERR_set_debug(ptr noundef nonnull @.str, i32 noundef 263, ptr noundef nonnull @__func__.tls13_validate_record_header) #6
  tail call void (ptr, i32, i32, ptr, ...) @ossl_rlayer_fatal(ptr noundef %0, i32 noundef 50, i32 noundef 267, ptr noundef null) #6
  br label %19

14:                                               ; preds = %11
  %15 = getelementptr inbounds nuw i8, ptr %1, i64 8
  %16 = load i64, ptr %15, align 8, !tbaa !38
  %17 = icmp ugt i64 %16, 16640
  br i1 %17, label %18, label %19

18:                                               ; preds = %14
  tail call void @ERR_new() #6
  tail call void @ERR_set_debug(ptr noundef nonnull @.str, i32 noundef 269, ptr noundef nonnull @__func__.tls13_validate_record_header) #6
  tail call void (ptr, i32, i32, ptr, ...) @ossl_rlayer_fatal(ptr noundef %0, i32 noundef 22, i32 noundef 150, ptr noundef null) #6
  br label %19

19:                                               ; preds = %14, %18, %13, %.thread
  %.0 = phi i32 [ 0, %.thread ], [ 0, %13 ], [ 0, %18 ], [ 1, %14 ]
  ret i32 %.0
}